; Function Attrs: mustprogress uwtable
define void @_ZN8QuantLib35YoYInflationBachelierCapFloorEngineC2ERKN5boost10shared_ptrINS_17YoYInflationIndexEEERKNS_6HandleINS_29YoYOptionletVolatilitySurfaceEEERKNS7_INS_18YieldTermStructureEEE(ptr noundef nonnull align 8 dereferenceable(496) %this, ptr nocapture noundef nonnull readonly align 8 dereferenceable(16) %index, ptr nocapture noundef nonnull readonly align 8 dereferenceable(16) %volatility, ptr nocapture noundef nonnull readonly align 8 dereferenceable(16) %nominalTermStructure) unnamed_addr #7 align 2 personality ptr @__gxx_personality_v0 {
entry:
  %agg.tmp = alloca %"class.boost::shared_ptr.29", align 8
  %agg.tmp2 = alloca %"class.QuantLib::Handle", align 8
  %agg.tmp3 = alloca %"class.QuantLib::Handle.31", align 8
  %0 = load ptr, ptr %index, align 8, !tbaa !54
  store ptr %0, ptr %agg.tmp, align 8, !tbaa !54
  %pn.i = getelementptr inbounds nuw i8, ptr %agg.tmp, i64 8
  %pn3.i = getelementptr inbounds nuw i8, ptr %index, i64 8
  %1 = load ptr, ptr %pn3.i, align 8, !tbaa !37
  store ptr %1, ptr %pn.i, align 8, !tbaa !37
  %cmp.not.i.i = icmp eq ptr %1, null
  br i1 %cmp.not.i.i, label %_ZN5boost10shared_ptrIN8QuantLib17YoYInflationIndexEEC2ERKS3_.exit, label %if.then.i.i

if.then.i.i:                                      ; preds = %entry
  %use_count_.i.i.i = getelementptr inbounds nuw i8, ptr %1, i64 8
  %2 = atomicrmw add ptr %use_count_.i.i.i, i32 1 monotonic, align 4
  br label %_ZN5boost10shared_ptrIN8QuantLib17YoYInflationIndexEEC2ERKS3_.exit

_ZN5boost10shared_ptrIN8QuantLib17YoYInflationIndexEEC2ERKS3_.exit: ; preds = %entry, %if.then.i.i
  %3 = load ptr, ptr %volatility, align 8, !tbaa !55
  store ptr %3, ptr %agg.tmp2, align 8, !tbaa !55
  %pn.i.i = getelementptr inbounds nuw i8, ptr %agg.tmp2, i64 8
  %pn3.i.i = getelementptr inbounds nuw i8, ptr %volatility, i64 8
  %4 = load ptr, ptr %pn3.i.i, align 8, !tbaa !37
  store ptr %4, ptr %pn.i.i, align 8, !tbaa !37
  %cmp.not.i.i.i = icmp eq ptr %4, null
  br i1 %cmp.not.i.i.i, label %_ZN8QuantLib6HandleINS_29YoYOptionletVolatilitySurfaceEEC2ERKS2_.exit, label %if.then.i.i.i

if.then.i.i.i:                                    ; preds = %_ZN5boost10shared_ptrIN8QuantLib17YoYInflationIndexEEC2ERKS3_.exit
  %use_count_.i.i.i.i = getelementptr inbounds nuw i8, ptr %4, i64 8
  %5 = atomicrmw add ptr %use_count_.i.i.i.i, i32 1 monotonic, align 4
  br label %_ZN8QuantLib6HandleINS_29YoYOptionletVolatilitySurfaceEEC2ERKS2_.exit

_ZN8QuantLib6HandleINS_29YoYOptionletVolatilitySurfaceEEC2ERKS2_.exit: ; preds = %_ZN5boost10shared_ptrIN8QuantLib17YoYInflationIndexEEC2ERKS3_.exit, %if.then.i.i.i
  %6 = load ptr, ptr %nominalTermStructure, align 8, !tbaa !57
  store ptr %6, ptr %agg.tmp3, align 8, !tbaa !57
  %pn.i.i1 = getelementptr inbounds nuw i8, ptr %agg.tmp3, i64 8
  %pn3.i.i2 = getelementptr inbounds nuw i8, ptr %nominalTermStructure, i64 8
  %7 = load ptr, ptr %pn3.i.i2, align 8, !tbaa !37
  store ptr %7, ptr %pn.i.i1, align 8, !tbaa !37
  %cmp.not.i.i.i3 = icmp eq ptr %7, null
  br i1 %cmp.not.i.i.i3, label %_ZN8QuantLib6HandleINS_18YieldTermStructureEEC2ERKS2_.exit, label %if.then.i.i.i4

if.then.i.i.i4:                                   ; preds = %_ZN8QuantLib6HandleINS_29YoYOptionletVolatilitySurfaceEEC2ERKS2_.exit
  %use_count_.i.i.i.i5 = getelementptr inbounds nuw i8, ptr %7, i64 8
  %8 = atomicrmw add ptr %use_count_.i.i.i.i5, i32 1 monotonic, align 4
  br label %_ZN8QuantLib6HandleINS_18YieldTermStructureEEC2ERKS2_.exit

_ZN8QuantLib6HandleINS_18YieldTermStructureEEC2ERKS2_.exit: ; preds = %_ZN8QuantLib6HandleINS_29YoYOptionletVolatilitySurfaceEEC2ERKS2_.exit, %if.then.i.i.i4
  invoke void @_ZN8QuantLib26YoYInflationCapFloorEngineC2EN5boost10shared_ptrINS_17YoYInflationIndexEEENS_6HandleINS_29YoYOptionletVolatilitySurfaceEEENS5_INS_18YieldTermStructureEEE(ptr noundef nonnull align 8 dereferenceable(496) %this, ptr noundef nonnull %agg.tmp, ptr noundef nonnull %agg.tmp2, ptr noundef nonnull %agg.tmp3)
          to label %invoke.cont unwind label %lpad

invoke.cont:                                      ; preds = %_ZN8QuantLib6HandleINS_18YieldTermStructureEEC2ERKS2_.exit
  %9 = load ptr, ptr %pn.i.i1, align 8, !tbaa !37
  %cmp.not.i.i.i7 = icmp eq ptr %9, null
  br i1 %cmp.not.i.i.i7, label %_ZN8QuantLib6HandleINS_18YieldTermStructureEED2Ev.exit, label %if.then.i.i.i8

if.then.i.i.i8:                                   ; preds = %invoke.cont
  %use_count_.i.i.i.i9 = getelementptr inbounds nuw i8, ptr %9, i64 8
  %10 = atomicrmw sub ptr %use_count_.i.i.i.i9, i32 1 acq_rel, align 4
  %cmp.i.i.i.i = icmp eq i32 %10, 1
  br i1 %cmp.i.i.i.i, label %if.then.i.i.i.i, label %_ZN8QuantLib6HandleINS_18YieldTermStructureEED2Ev.exit

if.then.i.i.i.i:                                  ; preds = %if.then.i.i.i8
  %vtable.i.i.i.i = load ptr, ptr %9, align 8, !tbaa !35
  %vfn.i.i.i.i = getelementptr inbounds i8, ptr %vtable.i.i.i.i, i64 16
  %11 = load ptr, ptr %vfn.i.i.i.i, align 8
  invoke void %11(ptr noundef nonnull align 8 dereferenceable(16) %9)
          to label %.noexc.i.i.i unwind label %terminate.lpad.i.i.i

.noexc.i.i.i:                                     ; preds = %if.then.i.i.i.i
  %weak_count_.i.i.i.i.i = getelementptr inbounds nuw i8, ptr %9, i64 12
  %12 = atomicrmw sub ptr %weak_count_.i.i.i.i.i, i32 1 acq_rel, align 4
  %cmp.i.i.i.i.i = icmp eq i32 %12, 1
  br i1 %cmp.i.i.i.i.i, label %if.then.i.i.i.i.i, label %_ZN8QuantLib6HandleINS_18YieldTermStructureEED2Ev.exit

if.then.i.i.i.i.i:                                ; preds = %.noexc.i.i.i
  %vtable.i.i.i.i.i = load ptr, ptr %9, align 8, !tbaa !35
  %vfn.i.i.i.i.i = getelementptr inbounds i8, ptr %vtable.i.i.i.i.i, i64 24
  %13 = load ptr, ptr %vfn.i.i.i.i.i, align 8
  invoke void %13(ptr noundef nonnull align 8 dereferenceable(16) %9)
          to label %_ZN8QuantLib6HandleINS_18YieldTermStructureEED2Ev.exit unwind label %terminate.lpad.i.i.i

terminate.lpad.i.i.i:                             ; preds = %if.then.i.i.i.i.i, %if.then.i.i.i.i
  %14 = landingpad { ptr, i32 }
          catch ptr null
  %15 = extractvalue { ptr, i32 } %14, 0
  tail call void @__clang_call_terminate(ptr %15) #26
  unreachable

_ZN8QuantLib6HandleINS_18YieldTermStructureEED2Ev.exit: ; preds = %invoke.cont, %if.then.i.i.i8, %.noexc.i.i.i, %if.then.i.i.i.i.i
  %16 = load ptr, ptr %pn.i.i, align 8, !tbaa !37
  %cmp.not.i.i.i11 = icmp eq ptr %16, null
  br i1 %cmp.not.i.i.i11, label %_ZN8QuantLib6HandleINS_29YoYOptionletVolatilitySurfaceEED2Ev.exit, label %if.then.i.i.i12

if.then.i.i.i12:                                  ; preds = %_ZN8QuantLib6HandleINS_18YieldTermStructureEED2Ev.exit
  %use_count_.i.i.i.i13 = getelementptr inbounds nuw i8, ptr %16, i64 8
  %17 = atomicrmw sub ptr %use_count_.i.i.i.i13, i32 1 acq_rel, align 4
  %cmp.i.i.i.i14 = icmp eq i32 %17, 1
  br i1 %cmp.i.i.i.i14, label %if.then.i.i.i.i15, label %_ZN8QuantLib6HandleINS_29YoYOptionletVolatilitySurfaceEED2Ev.exit

if.then.i.i.i.i15:                                ; preds = %if.then.i.i.i12
  %vtable.i.i.i.i16 = load ptr, ptr %16, align 8, !tbaa !35
  %vfn.i.i.i.i17 = getelementptr inbounds i8, ptr %vtable.i.i.i.i16, i64 16
  %18 = load ptr, ptr %vfn.i.i.i.i17, align 8
  invoke void %18(ptr noundef nonnull align 8 dereferenceable(16) %16)
          to label %.noexc.i.i.i19 unwind label %terminate.lpad.i.i.i18

.noexc.i.i.i19:                                   ; preds = %if.then.i.i.i.i15
  %weak_count_.i.i.i.i.i20 = getelementptr inbounds nuw i8, ptr %16, i64 12
  %19 = atomicrmw sub ptr %weak_count_.i.i.i.i.i20, i32 1 acq_rel, align 4
  %cmp.i.i.i.i.i21 = icmp eq i32 %19, 1
  br i1 %cmp.i.i.i.i.i21, label %if.then.i.i.i.i.i22, label %_ZN8QuantLib6HandleINS_29YoYOptionletVolatilitySurfaceEED2Ev.exit

if.then.i.i.i.i.i22:                              ; preds = %.noexc.i.i.i19
  %vtable.i.i.i.i.i23 = load ptr, ptr %16, align 8, !tbaa !35
  %vfn.i.i.i.i.i24 = getelementptr inbounds i8, ptr %vtable.i.i.i.i.i23, i64 24
  %20 = load ptr, ptr %vfn.i.i.i.i.i24, align 8
  invoke void %20(ptr noundef nonnull align 8 dereferenceable(16) %16)
          to label %_ZN8QuantLib6HandleINS_29YoYOptionletVolatilitySurfaceEED2Ev.exit unwind label %terminate.lpad.i.i.i18

terminate.lpad.i.i.i18:                           ; preds = %if.then.i.i.i.i.i22, %if.then.i.i.i.i15
  %21 = landingpad { ptr, i32 }
          catch ptr null
  %22 = extractvalue { ptr, i32 } %21, 0
  tail call void @__clang_call_terminate(ptr %22) #26
  unreachable

_ZN8QuantLib6HandleINS_29YoYOptionletVolatilitySurfaceEED2Ev.exit: ; preds = %_ZN8QuantLib6HandleINS_18YieldTermStructureEED2Ev.exit, %if.then.i.i.i12, %.noexc.i.i.i19, %if.then.i.i.i.i.i22
  %23 = load ptr, ptr %pn.i, align 8, !tbaa !37
  %cmp.not.i.i26 = icmp eq ptr %23, null
  br i1 %cmp.not.i.i26, label %_ZN5boost10shared_ptrIN8QuantLib17YoYInflationIndexEED2Ev.exit, label %if.then.i.i27

if.then.i.i27:                                    ; preds = %_ZN8QuantLib6HandleINS_29YoYOptionletVolatilitySurfaceEED2Ev.exit
  %use_count_.i.i.i28 = getelementptr inbounds nuw i8, ptr %23, i64 8
  %24 = atomicrmw sub ptr %use_count_.i.i.i28, i32 1 acq_rel, align 4
  %cmp.i.i.i = icmp eq i32 %24, 1
  br i1 %cmp.i.i.i, label %if.then.i.i.i29, label %_ZN5boost10shared_ptrIN8QuantLib17YoYInflationIndexEED2Ev.exit

if.then.i.i.i29:                                  ; preds = %if.then.i.i27
  %vtable.i.i.i = load ptr, ptr %23, align 8, !tbaa !35
  %vfn.i.i.i = getelementptr inbounds i8, ptr %vtable.i.i.i, i64 16
  %25 = load ptr, ptr %vfn.i.i.i, align 8
  invoke void %25(ptr noundef nonnull align 8 dereferenceable(16) %23)
          to label %.noexc.i.i unwind label %terminate.lpad.i.i

.noexc.i.i:                                       ; preds = %if.then.i.i.i29
  %weak_count_.i.i.i.i = getelementptr inbounds nuw i8, ptr %23, i64 12
  %26 = atomicrmw sub ptr %weak_count_.i.i.i.i, i32 1 acq_rel, align 4
  %cmp.i.i.i.i30 = icmp eq i32 %26, 1
  br i1 %cmp.i.i.i.i30, label %if.then.i.i.i.i31, label %_ZN5boost10shared_ptrIN8QuantLib17YoYInflationIndexEED2Ev.exit

if.then.i.i.i.i31:                                ; preds = %.noexc.i.i
  %vtable.i.i.i.i32 = load ptr, ptr %23, align 8, !tbaa !35
  %vfn.i.i.i.i33 = getelementptr inbounds i8, ptr %vtable.i.i.i.i32, i64 24
  %27 = load ptr, ptr %vfn.i.i.i.i33, align 8
  invoke void %27(ptr noundef nonnull align 8 dereferenceable(16) %23)
          to label %_ZN5boost10shared_ptrIN8QuantLib17YoYInflationIndexEED2Ev.exit unwind label %terminate.lpad.i.i

terminate.lpad.i.i:                               ; preds = %if.then.i.i.i.i31, %if.then.i.i.i29
  %28 = landingpad { ptr, i32 }
          catch ptr null
  %29 = extractvalue { ptr, i32 } %28, 0
  tail call void @__clang_call_terminate(ptr %29) #26
  unreachable

_ZN5boost10shared_ptrIN8QuantLib17YoYInflationIndexEED2Ev.exit: ; preds = %_ZN8QuantLib6HandleINS_29YoYOptionletVolatilitySurfaceEED2Ev.exit, %if.then.i.i27, %.noexc.i.i, %if.then.i.i.i.i31
  store ptr getelementptr inbounds inrange(-16, 64) (i8, ptr @_ZTVN8QuantLib35YoYInflationBachelierCapFloorEngineE, i64 16), ptr %this, align 8, !tbaa !35
  %add.ptr = getelementptr inbounds i8, ptr %this, i64 56
  store ptr getelementptr inbounds inrange(-16, 32) (i8, ptr @_ZTVN8QuantLib35YoYInflationBachelierCapFloorEngineE, i64 96), ptr %add.ptr, align 8, !tbaa !35
  ret void

lpad:                                             ; preds = %_ZN8QuantLib6HandleINS_18YieldTermStructureEEC2ERKS2_.exit
  %30 = landingpad { ptr, i32 }
          cleanup
  call void @_ZN8QuantLib6HandleINS_18YieldTermStructureEED2Ev(ptr noundef nonnull align 8 dereferenceable(16) %agg.tmp3) #25
  call void @_ZN8QuantLib6HandleINS_29YoYOptionletVolatilitySurfaceEED2Ev(ptr noundef nonnull align 8 dereferenceable(16) %agg.tmp2) #25
  call void @_ZN5boost10shared_ptrIN8QuantLib17YoYInflationIndexEED2Ev(ptr noundef nonnull align 8 dereferenceable(16) %agg.tmp) #25
  resume { ptr, i32 } %30
}